; Function Attrs: mustprogress nofree norecurse nosync nounwind willreturn memory(read, inaccessiblemem: none) uwtable
define dso_local { i8, i64 } @_ZNK4Luau7CodeGen3X6413IrLoweringX647constOpENS0_4IrOpE(ptr noundef nonnull readonly align 8 captures(none) dereferenceable(1440) %0, i32 %1) local_unnamed_addr #4 align 2 {
  %3 = getelementptr inbounds nuw i8, ptr %0, i64 16
  %4 = load ptr, ptr %3, align 8, !tbaa !61
  %5 = getelementptr inbounds nuw i8, ptr %4, i64 48
  %6 = lshr i32 %1, 4
  %7 = zext nneg i32 %6 to i64
  %8 = load ptr, ptr %5, align 8, !tbaa !62
  %9 = getelementptr inbounds nuw %"struct.Luau::CodeGen::IrConst", ptr %8, i64 %7
  %.sroa.02.0.copyload = load i8, ptr %9, align 8, !tbaa !156
  %.sroa.23.0..sroa_idx = getelementptr inbounds nuw i8, ptr %9, i64 8
  %.sroa.23.0.copyload = load i64, ptr %.sroa.23.0..sroa_idx, align 8, !tbaa !51
  %.fca.0.insert = insertvalue { i8, i64 } poison, i8 %.sroa.02.0.copyload, 0
  %.fca.1.insert = insertvalue { i8, i64 } %.fca.0.insert, i64 %.sroa.23.0.copyload, 1
  ret { i8, i64 } %.fca.1.insert
}